target datalayout = "e-m:e-p270:32:32-p271:32:32-p272:64:64-i64:64-i128:128-f80:128-n8:16:32:64-S128"
target triple = "x86_64-pc-linux-gnu"

%struct.pointf_s = type { double, double }
%struct.boxf = type { %struct.pointf_s, %struct.pointf_s }
%struct.Agobj_s = type { %struct.Agtag_s, ptr }
%struct.Agtag_s = type { i32, i64 }
%struct.Agraphinfo_t = type { %struct.Agrec_s, ptr, ptr, %struct.boxf, [4 x %struct.pointf_s], i8, i8, i8, i8, i32, double, double, i16, ptr, ptr, ptr, ptr, i32, ptr, ptr, ptr, ptr, i16, i16, i32, ptr, ptr, ptr, ptr, ptr, i32, ptr, ptr, %struct.nlist_t, ptr, ptr, i32, i32, i8, i8, i32, i32, i32, ptr, ptr, ptr, ptr, i8, i8, i8, i8, i8 }
%struct.Agrec_s = type { ptr, ptr }
%struct.nlist_t = type { ptr, i64 }
%struct.textlabel_t = type { ptr, ptr, ptr, i32, double, %struct.pointf_s, %struct.pointf_s, %struct.pointf_s, %union.anon.0, i8, i8, i8 }
%union.anon.0 = type { %struct.anon }
%struct.anon = type { ptr, i64 }

@Rankdir = internal global i32 0, align 4
@Offset = internal global %struct.pointf_s zeroinitializer, align 8

; Function Attrs: nounwind uwtable
define internal { double, double } @map_point(double %0, double %1) #0 {
  %3 = alloca %struct.pointf_s, align 8
  %4 = alloca %struct.pointf_s, align 8
  %5 = alloca %struct.pointf_s, align 8
  %6 = getelementptr inbounds nuw { double, double }, ptr %4, i32 0, i32 0
  store double %0, ptr %6, align 8
  %7 = getelementptr inbounds nuw { double, double }, ptr %4, i32 0, i32 1
  store double %1, ptr %7, align 8
  call void @llvm.lifetime.start.p0(i64 16, ptr %5) #12
  %8 = load i32, ptr @Rankdir, align 4, !tbaa !8
  %9 = mul nsw i32 %8, 90
  %10 = getelementptr inbounds nuw { double, double }, ptr %4, i32 0, i32 0
  %11 = load double, ptr %10, align 8
  %12 = getelementptr inbounds nuw { double, double }, ptr %4, i32 0, i32 1
  %13 = load double, ptr %12, align 8
  %14 = call { double, double } @ccwrotatepf(double %11, double %13, i32 noundef %9)
  %15 = getelementptr inbounds nuw { double, double }, ptr %5, i32 0, i32 0
  %16 = extractvalue { double, double } %14, 0
  store double %16, ptr %15, align 8
  %17 = getelementptr inbounds nuw { double, double }, ptr %5, i32 0, i32 1
  %18 = extractvalue { double, double } %14, 1
  store double %18, ptr %17, align 8
  call void @llvm.memcpy.p0.p0.i64(ptr align 8 %4, ptr align 8 %5, i64 16, i1 false), !tbaa.struct !24
  call void @llvm.lifetime.end.p0(i64 16, ptr %5) #12
  %19 = load double, ptr @Offset, align 8, !tbaa !21
  %20 = getelementptr inbounds nuw %struct.pointf_s, ptr %4, i32 0, i32 0
  %21 = load double, ptr %20, align 8, !tbaa !21
  %22 = fsub double %21, %19
  store double %22, ptr %20, align 8, !tbaa !21
  %23 = load double, ptr getelementptr inbounds nuw (%struct.pointf_s, ptr @Offset, i32 0, i32 1), align 8, !tbaa !23
  %24 = getelementptr inbounds nuw %struct.pointf_s, ptr %4, i32 0, i32 1
  %25 = load double, ptr %24, align 8, !tbaa !23
  %26 = fsub double %25, %23
  store double %26, ptr %24, align 8, !tbaa !23
  call void @llvm.memcpy.p0.p0.i64(ptr align 8 %3, ptr align 8 %4, i64 16, i1 false), !tbaa.struct !24
  %27 = load { double, double }, ptr %3, align 8
  ret { double, double } %27
}

; Function Attrs: nounwind uwtable
define void @translate_bb(ptr noundef %0, i32 noundef %1) #0 {
  %3 = alloca ptr, align 8
  %4 = alloca i32, align 4
  %5 = alloca i32, align 4
  %6 = alloca %struct.boxf, align 8
  %7 = alloca %struct.boxf, align 8
  %8 = alloca %struct.pointf_s, align 8
  %9 = alloca %struct.pointf_s, align 8
  %10 = alloca %struct.pointf_s, align 8
  %11 = alloca %struct.pointf_s, align 8
  %12 = alloca %struct.pointf_s, align 8
  %13 = alloca %struct.pointf_s, align 8
  %14 = alloca %struct.pointf_s, align 8
  %15 = alloca %struct.pointf_s, align 8
  %16 = alloca %struct.pointf_s, align 8
  store ptr %0, ptr %3, align 8, !tbaa !3
  store i32 %1, ptr %4, align 4, !tbaa !8
  call void @llvm.lifetime.start.p0(i64 4, ptr %5) #12
  call void @llvm.lifetime.start.p0(i64 32, ptr %6) #12
  call void @llvm.lifetime.start.p0(i64 32, ptr %7) #12
  %17 = load ptr, ptr %3, align 8, !tbaa !3
  %18 = getelementptr inbounds nuw %struct.Agobj_s, ptr %17, i32 0, i32 1
  %19 = load ptr, ptr %18, align 8, !tbaa !10
  %20 = getelementptr inbounds nuw %struct.Agraphinfo_t, ptr %19, i32 0, i32 3
  call void @llvm.memcpy.p0.p0.i64(ptr align 8 %6, ptr align 8 %20, i64 32, i1 false), !tbaa.struct !15
  %21 = load i32, ptr %4, align 4, !tbaa !8
  %22 = icmp eq i32 %21, 1
  br i1 %22, label %26, label %23

23:                                               ; preds = %2
  %24 = load i32, ptr %4, align 4, !tbaa !8
  %25 = icmp eq i32 %24, 2
  br i1 %25, label %26, label %63

26:                                               ; preds = %23, %2
  %27 = getelementptr inbounds nuw %struct.boxf, ptr %7, i32 0, i32 0
  call void @llvm.lifetime.start.p0(i64 16, ptr %8) #12
  %28 = getelementptr inbounds nuw %struct.pointf_s, ptr %9, i32 0, i32 0
  %29 = getelementptr inbounds nuw %struct.boxf, ptr %6, i32 0, i32 0
  %30 = getelementptr inbounds nuw %struct.pointf_s, ptr %29, i32 0, i32 0
  %31 = load double, ptr %30, align 8, !tbaa !18
  store double %31, ptr %28, align 8, !tbaa !21
  %32 = getelementptr inbounds nuw %struct.pointf_s, ptr %9, i32 0, i32 1
  %33 = getelementptr inbounds nuw %struct.boxf, ptr %6, i32 0, i32 1
  %34 = getelementptr inbounds nuw %struct.pointf_s, ptr %33, i32 0, i32 1
  %35 = load double, ptr %34, align 8, !tbaa !22
  store double %35, ptr %32, align 8, !tbaa !23
  %36 = getelementptr inbounds nuw { double, double }, ptr %9, i32 0, i32 0
  %37 = load double, ptr %36, align 8
  %38 = getelementptr inbounds nuw { double, double }, ptr %9, i32 0, i32 1
  %39 = load double, ptr %38, align 8
  %40 = call { double, double } @map_point(double %37, double %39)
  %41 = getelementptr inbounds nuw { double, double }, ptr %8, i32 0, i32 0
  %42 = extractvalue { double, double } %40, 0
  store double %42, ptr %41, align 8
  %43 = getelementptr inbounds nuw { double, double }, ptr %8, i32 0, i32 1
  %44 = extractvalue { double, double } %40, 1
  store double %44, ptr %43, align 8
  call void @llvm.memcpy.p0.p0.i64(ptr align 8 %27, ptr align 8 %8, i64 16, i1 false), !tbaa.struct !24
  call void @llvm.lifetime.end.p0(i64 16, ptr %8) #12
  %45 = getelementptr inbounds nuw %struct.boxf, ptr %7, i32 0, i32 1
  call void @llvm.lifetime.start.p0(i64 16, ptr %10) #12
  %46 = getelementptr inbounds nuw %struct.pointf_s, ptr %11, i32 0, i32 0
  %47 = getelementptr inbounds nuw %struct.boxf, ptr %6, i32 0, i32 1
  %48 = getelementptr inbounds nuw %struct.pointf_s, ptr %47, i32 0, i32 0
  %49 = load double, ptr %48, align 8, !tbaa !25
  store double %49, ptr %46, align 8, !tbaa !21
  %50 = getelementptr inbounds nuw %struct.pointf_s, ptr %11, i32 0, i32 1
  %51 = getelementptr inbounds nuw %struct.boxf, ptr %6, i32 0, i32 0
  %52 = getelementptr inbounds nuw %struct.pointf_s, ptr %51, i32 0, i32 1
  %53 = load double, ptr %52, align 8, !tbaa !26
  store double %53, ptr %50, align 8, !tbaa !23
  %54 = getelementptr inbounds nuw { double, double }, ptr %11, i32 0, i32 0
  %55 = load double, ptr %54, align 8
  %56 = getelementptr inbounds nuw { double, double }, ptr %11, i32 0, i32 1
  %57 = load double, ptr %56, align 8
  %58 = call { double, double } @map_point(double %55, double %57)
  %59 = getelementptr inbounds nuw { double, double }, ptr %10, i32 0, i32 0
  %60 = extractvalue { double, double } %58, 0
  store double %60, ptr %59, align 8
  %61 = getelementptr inbounds nuw { double, double }, ptr %10, i32 0, i32 1
  %62 = extractvalue { double, double } %58, 1
  store double %62, ptr %61, align 8
  call void @llvm.memcpy.p0.p0.i64(ptr align 8 %45, ptr align 8 %10, i64 16, i1 false), !tbaa.struct !24
  call void @llvm.lifetime.end.p0(i64 16, ptr %10) #12
  br label %100

63:                                               ; preds = %23
  %64 = getelementptr inbounds nuw %struct.boxf, ptr %7, i32 0, i32 0
  call void @llvm.lifetime.start.p0(i64 16, ptr %12) #12
  %65 = getelementptr inbounds nuw %struct.pointf_s, ptr %13, i32 0, i32 0
  %66 = getelementptr inbounds nuw %struct.boxf, ptr %6, i32 0, i32 0
  %67 = getelementptr inbounds nuw %struct.pointf_s, ptr %66, i32 0, i32 0
  %68 = load double, ptr %67, align 8, !tbaa !18
  store double %68, ptr %65, align 8, !tbaa !21
  %69 = getelementptr inbounds nuw %struct.pointf_s, ptr %13, i32 0, i32 1
  %70 = getelementptr inbounds nuw %struct.boxf, ptr %6, i32 0, i32 0
  %71 = getelementptr inbounds nuw %struct.pointf_s, ptr %70, i32 0, i32 1
  %72 = load double, ptr %71, align 8, !tbaa !26
  store double %72, ptr %69, align 8, !tbaa !23
  %73 = getelementptr inbounds nuw { double, double }, ptr %13, i32 0, i32 0
  %74 = load double, ptr %73, align 8
  %75 = getelementptr inbounds nuw { double, double }, ptr %13, i32 0, i32 1
  %76 = load double, ptr %75, align 8
  %77 = call { double, double } @map_point(double %74, double %76)
  %78 = getelementptr inbounds nuw { double, double }, ptr %12, i32 0, i32 0
  %79 = extractvalue { double, double } %77, 0
  store double %79, ptr %78, align 8
  %80 = getelementptr inbounds nuw { double, double }, ptr %12, i32 0, i32 1
  %81 = extractvalue { double, double } %77, 1
  store double %81, ptr %80, align 8
  call void @llvm.memcpy.p0.p0.i64(ptr align 8 %64, ptr align 8 %12, i64 16, i1 false), !tbaa.struct !24
  call void @llvm.lifetime.end.p0(i64 16, ptr %12) #12
  %82 = getelementptr inbounds nuw %struct.boxf, ptr %7, i32 0, i32 1
  call void @llvm.lifetime.start.p0(i64 16, ptr %14) #12
  %83 = getelementptr inbounds nuw %struct.pointf_s, ptr %15, i32 0, i32 0
  %84 = getelementptr inbounds nuw %struct.boxf, ptr %6, i32 0, i32 1
  %85 = getelementptr inbounds nuw %struct.pointf_s, ptr %84, i32 0, i32 0
  %86 = load double, ptr %85, align 8, !tbaa !25
  store double %86, ptr %83, align 8, !tbaa !21
  %87 = getelementptr inbounds nuw %struct.pointf_s, ptr %15, i32 0, i32 1
  %88 = getelementptr inbounds nuw %struct.boxf, ptr %6, i32 0, i32 1
  %89 = getelementptr inbounds nuw %struct.pointf_s, ptr %88, i32 0, i32 1
  %90 = load double, ptr %89, align 8, !tbaa !22
  store double %90, ptr %87, align 8, !tbaa !23
  %91 = getelementptr inbounds nuw { double, double }, ptr %15, i32 0, i32 0
  %92 = load double, ptr %91, align 8
  %93 = getelementptr inbounds nuw { double, double }, ptr %15, i32 0, i32 1
  %94 = load double, ptr %93, align 8
  %95 = call { double, double } @map_point(double %92, double %94)
  %96 = getelementptr inbounds nuw { double, double }, ptr %14, i32 0, i32 0
  %97 = extractvalue { double, double } %95, 0
  store double %97, ptr %96, align 8
  %98 = getelementptr inbounds nuw { double, double }, ptr %14, i32 0, i32 1
  %99 = extractvalue { double, double } %95, 1
  store double %99, ptr %98, align 8
  call void @llvm.memcpy.p0.p0.i64(ptr align 8 %82, ptr align 8 %14, i64 16, i1 false), !tbaa.struct !24
  call void @llvm.lifetime.end.p0(i64 16, ptr %14) #12
  br label %100

100:                                              ; preds = %63, %26
  %101 = load ptr, ptr %3, align 8, !tbaa !3
  %102 = getelementptr inbounds nuw %struct.Agobj_s, ptr %101, i32 0, i32 1
  %103 = load ptr, ptr %102, align 8, !tbaa !10
  %104 = getelementptr inbounds nuw %struct.Agraphinfo_t, ptr %103, i32 0, i32 3
  call void @llvm.memcpy.p0.p0.i64(ptr align 8 %104, ptr align 8 %7, i64 32, i1 false), !tbaa.struct !15
  %105 = load ptr, ptr %3, align 8, !tbaa !3
  %106 = getelementptr inbounds nuw %struct.Agobj_s, ptr %105, i32 0, i32 1
  %107 = load ptr, ptr %106, align 8, !tbaa !10
  %108 = getelementptr inbounds nuw %struct.Agraphinfo_t, ptr %107, i32 0, i32 2
  %109 = load ptr, ptr %108, align 8, !tbaa !27
  %110 = icmp ne ptr %109, null
  br i1 %110, label %111, label %133

111:                                              ; preds = %100
  %112 = load ptr, ptr %3, align 8, !tbaa !3
  %113 = getelementptr inbounds nuw %struct.Agobj_s, ptr %112, i32 0, i32 1
  %114 = load ptr, ptr %113, align 8, !tbaa !10
  %115 = getelementptr inbounds nuw %struct.Agraphinfo_t, ptr %114, i32 0, i32 2
  %116 = load ptr, ptr %115, align 8, !tbaa !27
  %117 = getelementptr inbounds nuw %struct.textlabel_t, ptr %116, i32 0, i32 7
  call void @llvm.lifetime.start.p0(i64 16, ptr %16) #12
  %118 = load ptr, ptr %3, align 8, !tbaa !3
  %119 = getelementptr inbounds nuw %struct.Agobj_s, ptr %118, i32 0, i32 1
  %120 = load ptr, ptr %119, align 8, !tbaa !10
  %121 = getelementptr inbounds nuw %struct.Agraphinfo_t, ptr %120, i32 0, i32 2
  %122 = load ptr, ptr %121, align 8, !tbaa !27
  %123 = getelementptr inbounds nuw %struct.textlabel_t, ptr %122, i32 0, i32 7
  %124 = getelementptr inbounds nuw { double, double }, ptr %123, i32 0, i32 0
  %125 = load double, ptr %124, align 8
  %126 = getelementptr inbounds nuw { double, double }, ptr %123, i32 0, i32 1
  %127 = load double, ptr %126, align 8
  %128 = call { double, double } @map_point(double %125, double %127)
  %129 = getelementptr inbounds nuw { double, double }, ptr %16, i32 0, i32 0
  %130 = extractvalue { double, double } %128, 0
  store double %130, ptr %129, align 8
  %131 = getelementptr inbounds nuw { double, double }, ptr %16, i32 0, i32 1
  %132 = extractvalue { double, double } %128, 1
  store double %132, ptr %131, align 8
  call void @llvm.memcpy.p0.p0.i64(ptr align 8 %117, ptr align 8 %16, i64 16, i1 false), !tbaa.struct !24
  call void @llvm.lifetime.end.p0(i64 16, ptr %16) #12
  br label %133

133:                                              ; preds = %111, %100
  store i32 1, ptr %5, align 4, !tbaa !8
  br label %134

134:                                              ; preds = %153, %133
  %135 = load i32, ptr %5, align 4, !tbaa !8
  %136 = load ptr, ptr %3, align 8, !tbaa !3
  %137 = getelementptr inbounds nuw %struct.Agobj_s, ptr %136, i32 0, i32 1
  %138 = load ptr, ptr %137, align 8, !tbaa !10
  %139 = getelementptr inbounds nuw %struct.Agraphinfo_t, ptr %138, i32 0, i32 24
  %140 = load i32, ptr %139, align 4, !tbaa !43
  %141 = icmp sle i32 %135, %140
  br i1 %141, label %142, label %156

142:                                              ; preds = %134
  %143 = load ptr, ptr %3, align 8, !tbaa !3
  %144 = getelementptr inbounds nuw %struct.Agobj_s, ptr %143, i32 0, i32 1
  %145 = load ptr, ptr %144, align 8, !tbaa !10
  %146 = getelementptr inbounds nuw %struct.Agraphinfo_t, ptr %145, i32 0, i32 25
  %147 = load ptr, ptr %146, align 8, !tbaa !44
  %148 = load i32, ptr %5, align 4, !tbaa !8
  %149 = sext i32 %148 to i64
  %150 = getelementptr inbounds ptr, ptr %147, i64 %149
  %151 = load ptr, ptr %150, align 8, !tbaa !3
  %152 = load i32, ptr %4, align 4, !tbaa !8
  call void @translate_bb(ptr noundef %151, i32 noundef %152)
  br label %153

153:                                              ; preds = %142
  %154 = load i32, ptr %5, align 4, !tbaa !8
  %155 = add nsw i32 %154, 1
  store i32 %155, ptr %5, align 4, !tbaa !8
  br label %134, !llvm.loop !45

156:                                              ; preds = %134
  call void @llvm.lifetime.end.p0(i64 32, ptr %7) #12
  call void @llvm.lifetime.end.p0(i64 32, ptr %6) #12
  call void @llvm.lifetime.end.p0(i64 4, ptr %5) #12
  ret void
}