; Function Attrs: nounwind uwtable
define void @translate_bb(ptr noundef readonly captures(none) %0, i32 noundef %1) local_unnamed_addr #0 {
  %3 = getelementptr inbounds nuw i8, ptr %0, i64 16
  %4 = load ptr, ptr %3, align 8, !tbaa !3
  %5 = getelementptr inbounds nuw i8, ptr %4, i64 32
  %.sroa.018.0.copyload = load double, ptr %5, align 8, !tbaa !12
  %.sroa.520.0..sroa_idx = getelementptr inbounds nuw i8, ptr %4, i64 40
  %.sroa.520.0.copyload = load double, ptr %.sroa.520.0..sroa_idx, align 8, !tbaa !12
  %.sroa.722.0..sroa_idx = getelementptr inbounds nuw i8, ptr %4, i64 48
  %.sroa.722.0.copyload = load double, ptr %.sroa.722.0..sroa_idx, align 8, !tbaa !12
  %.sroa.924.0..sroa_idx = getelementptr inbounds nuw i8, ptr %4, i64 56
  %.sroa.924.0.copyload = load double, ptr %.sroa.924.0..sroa_idx, align 8, !tbaa !12
  %6 = add i32 %1, -1
  %or.cond = icmp ult i32 %6, 2
  %7 = load i32, ptr @Rankdir, align 4, !tbaa !14
  %8 = mul nuw nsw i32 %7, 90
  %.sroa.924.0.copyload..sroa.520.0.copyload = select i1 %or.cond, double %.sroa.924.0.copyload, double %.sroa.520.0.copyload
  %.sroa.520.0.copyload..sroa.924.0.copyload = select i1 %or.cond, double %.sroa.520.0.copyload, double %.sroa.924.0.copyload
  %9 = tail call { double, double } @ccwrotatepf(double %.sroa.018.0.copyload, double %.sroa.924.0.copyload..sroa.520.0.copyload, i32 noundef %8) #18
  %10 = extractvalue { double, double } %9, 0
  %11 = extractvalue { double, double } %9, 1
  %12 = load double, ptr @Offset, align 8, !tbaa !15
  %13 = fsub double %10, %12
  %14 = load double, ptr getelementptr inbounds nuw (i8, ptr @Offset, i64 8), align 8, !tbaa !17
  %15 = fsub double %11, %14
  %16 = load i32, ptr @Rankdir, align 4, !tbaa !14
  %17 = mul nuw nsw i32 %16, 90
  %18 = tail call { double, double } @ccwrotatepf(double %.sroa.722.0.copyload, double %.sroa.520.0.copyload..sroa.924.0.copyload, i32 noundef %17) #18
  %19 = extractvalue { double, double } %18, 0
  %20 = extractvalue { double, double } %18, 1
  %21 = load double, ptr @Offset, align 8, !tbaa !15
  %22 = fsub double %19, %21
  %23 = load double, ptr getelementptr inbounds nuw (i8, ptr @Offset, i64 8), align 8, !tbaa !17
  %24 = fsub double %20, %23
  %25 = load ptr, ptr %3, align 8, !tbaa !3
  %26 = getelementptr inbounds nuw i8, ptr %25, i64 32
  store double %13, ptr %26, align 8, !tbaa !12
  %.sroa.5.0..sroa_idx = getelementptr inbounds nuw i8, ptr %25, i64 40
  store double %15, ptr %.sroa.5.0..sroa_idx, align 8, !tbaa !12
  %.sroa.7.0..sroa_idx = getelementptr inbounds nuw i8, ptr %25, i64 48
  store double %22, ptr %.sroa.7.0..sroa_idx, align 8, !tbaa !12
  %.sroa.9.0..sroa_idx = getelementptr inbounds nuw i8, ptr %25, i64 56
  store double %24, ptr %.sroa.9.0..sroa_idx, align 8, !tbaa !12
  %27 = getelementptr inbounds nuw i8, ptr %25, i64 24
  %28 = load ptr, ptr %27, align 8, !tbaa !18
  %.not = icmp eq ptr %28, null
  br i1 %.not, label %43, label %29

29:                                               ; preds = %2
  %30 = getelementptr inbounds nuw i8, ptr %28, i64 72
  %31 = load double, ptr %30, align 8
  %32 = getelementptr inbounds nuw i8, ptr %28, i64 80
  %33 = load double, ptr %32, align 8
  %34 = load i32, ptr @Rankdir, align 4, !tbaa !14
  %35 = mul nuw nsw i32 %34, 90
  %36 = tail call { double, double } @ccwrotatepf(double %31, double %33, i32 noundef %35) #18
  %37 = extractvalue { double, double } %36, 0
  %38 = extractvalue { double, double } %36, 1
  %39 = load double, ptr @Offset, align 8, !tbaa !15
  %40 = fsub double %37, %39
  %41 = load double, ptr getelementptr inbounds nuw (i8, ptr @Offset, i64 8), align 8, !tbaa !17
  %42 = fsub double %38, %41
  store double %40, ptr %30, align 8, !tbaa !12
  store double %42, ptr %32, align 8, !tbaa !12
  %.pre = load ptr, ptr %3, align 8, !tbaa !3
  br label %43

43:                                               ; preds = %29, %2
  %44 = phi ptr [ %.pre, %29 ], [ %25, %2 ]
  %45 = getelementptr inbounds nuw i8, ptr %44, i64 236
  %46 = load i32, ptr %45, align 4, !tbaa !36
  %.not4156 = icmp slt i32 %46, 1
  br i1 %.not4156, label %._crit_edge, label %.lr.ph

.lr.ph:                                           ; preds = %43, %.lr.ph
  %indvars.iv = phi i64 [ %indvars.iv.next, %.lr.ph ], [ 1, %43 ]
  %47 = phi ptr [ %52, %.lr.ph ], [ %44, %43 ]
  %48 = getelementptr inbounds nuw i8, ptr %47, i64 240
  %49 = load ptr, ptr %48, align 8, !tbaa !37
  %50 = getelementptr inbounds nuw ptr, ptr %49, i64 %indvars.iv
  %51 = load ptr, ptr %50, align 8, !tbaa !38
  tail call void @translate_bb(ptr noundef %51, i32 noundef %1)
  %indvars.iv.next = add nuw nsw i64 %indvars.iv, 1
  %52 = load ptr, ptr %3, align 8, !tbaa !3
  %53 = getelementptr inbounds nuw i8, ptr %52, i64 236
  %54 = load i32, ptr %53, align 4, !tbaa !36
  %55 = sext i32 %54 to i64
  %.not41.not = icmp slt i64 %indvars.iv, %55
  br i1 %.not41.not, label %.lr.ph, label %._crit_edge, !llvm.loop !39

._crit_edge:                                      ; preds = %.lr.ph, %43
  ret void
}